target datalayout = "e-m:e-p270:32:32-p271:32:32-p272:64:64-i64:64-i128:128-f80:128-n8:16:32:64-S128"
target triple = "x86_64-pc-linux-gnu"

; Function Attrs: inlinehint nounwind uwtable
define internal void @MEM_write16(ptr noundef %0, i16 noundef zeroext %1) #4 {
  %3 = alloca ptr, align 8
  %4 = alloca i16, align 2
  store ptr %0, ptr %3, align 8, !tbaa !4
  store i16 %1, ptr %4, align 2, !tbaa !25
  %5 = load i16, ptr %4, align 2, !tbaa !25
  %6 = load ptr, ptr %3, align 8, !tbaa !4
  store i16 %5, ptr %6, align 1, !tbaa !25
  ret void
}

; Function Attrs: inlinehint nounwind uwtable
define internal i32 @MEM_isLittleEndian() #4 {
  ret i32 1
}

; Function Attrs: inlinehint nounwind uwtable
define internal void @MEM_writeLE16(ptr noundef %0, i16 noundef zeroext %1) #4 {
  %3 = alloca ptr, align 8
  %4 = alloca i16, align 2
  %5 = alloca ptr, align 8
  store ptr %0, ptr %3, align 8, !tbaa !4
  store i16 %1, ptr %4, align 2, !tbaa !25
  %6 = call i32 @MEM_isLittleEndian()
  %7 = icmp ne i32 %6, 0
  br i1 %7, label %8, label %11

8:                                                ; preds = %2
  %9 = load ptr, ptr %3, align 8, !tbaa !4
  %10 = load i16, ptr %4, align 2, !tbaa !25
  call void @MEM_write16(ptr noundef %9, i16 noundef zeroext %10)
  br label %23

11:                                               ; preds = %2
  call void @llvm.lifetime.start.p0(i64 8, ptr %5) #8
  %12 = load ptr, ptr %3, align 8, !tbaa !4
  store ptr %12, ptr %5, align 8, !tbaa !14
  %13 = load i16, ptr %4, align 2, !tbaa !25
  %14 = trunc i16 %13 to i8
  %15 = load ptr, ptr %5, align 8, !tbaa !14
  %16 = getelementptr inbounds i8, ptr %15, i64 0
  store i8 %14, ptr %16, align 1, !tbaa !16
  %17 = load i16, ptr %4, align 2, !tbaa !25
  %18 = zext i16 %17 to i32
  %19 = ashr i32 %18, 8
  %20 = trunc i32 %19 to i8
  %21 = load ptr, ptr %5, align 8, !tbaa !14
  %22 = getelementptr inbounds i8, ptr %21, i64 1
  store i8 %20, ptr %22, align 1, !tbaa !16
  call void @llvm.lifetime.end.p0(i64 8, ptr %5) #8
  br label %23

23:                                               ; preds = %11, %8
  ret void
}

; Function Attrs: nounwind uwtable
define internal i32 @ERR_isError(i64 noundef %0) #0 {
  %2 = alloca i64, align 8
  store i64 %0, ptr %2, align 8, !tbaa !8
  %3 = load i64, ptr %2, align 8, !tbaa !8
  %4 = icmp ugt i64 %3, -120
  %5 = zext i1 %4 to i32
  ret i32 %5
}

; Function Attrs: nounwind uwtable
define internal i64 @HUF_compress4X_usingCTable_internal(ptr noundef %0, i64 noundef %1, ptr noundef %2, i64 noundef %3, ptr noundef %4, i32 noundef %5) #0 {
  %7 = alloca i64, align 8
  %8 = alloca ptr, align 8
  %9 = alloca i64, align 8
  %10 = alloca ptr, align 8
  %11 = alloca i64, align 8
  %12 = alloca ptr, align 8
  %13 = alloca i32, align 4
  %14 = alloca i64, align 8
  %15 = alloca ptr, align 8
  %16 = alloca ptr, align 8
  %17 = alloca ptr, align 8
  %18 = alloca ptr, align 8
  %19 = alloca ptr, align 8
  %20 = alloca i32, align 4
  %21 = alloca i64, align 8
  %22 = alloca i64, align 8
  %23 = alloca i64, align 8
  %24 = alloca i64, align 8
  store ptr %0, ptr %8, align 8, !tbaa !4
  store i64 %1, ptr %9, align 8, !tbaa !8
  store ptr %2, ptr %10, align 8, !tbaa !4
  store i64 %3, ptr %11, align 8, !tbaa !8
  store ptr %4, ptr %12, align 8, !tbaa !10
  store i32 %5, ptr %13, align 4, !tbaa !12
  call void @llvm.lifetime.start.p0(i64 8, ptr %14) #8
  %25 = load i64, ptr %11, align 8, !tbaa !8
  %26 = add i64 %25, 3
  %27 = udiv i64 %26, 4
  store i64 %27, ptr %14, align 8, !tbaa !8
  call void @llvm.lifetime.start.p0(i64 8, ptr %15) #8
  %28 = load ptr, ptr %10, align 8, !tbaa !4
  store ptr %28, ptr %15, align 8, !tbaa !14
  call void @llvm.lifetime.start.p0(i64 8, ptr %16) #8
  %29 = load ptr, ptr %15, align 8, !tbaa !14
  %30 = load i64, ptr %11, align 8, !tbaa !8
  %31 = getelementptr inbounds nuw i8, ptr %29, i64 %30
  store ptr %31, ptr %16, align 8, !tbaa !14
  call void @llvm.lifetime.start.p0(i64 8, ptr %17) #8
  %32 = load ptr, ptr %8, align 8, !tbaa !4
  store ptr %32, ptr %17, align 8, !tbaa !14
  call void @llvm.lifetime.start.p0(i64 8, ptr %18) #8
  %33 = load ptr, ptr %17, align 8, !tbaa !14
  %34 = load i64, ptr %9, align 8, !tbaa !8
  %35 = getelementptr inbounds nuw i8, ptr %33, i64 %34
  store ptr %35, ptr %18, align 8, !tbaa !14
  call void @llvm.lifetime.start.p0(i64 8, ptr %19) #8
  %36 = load ptr, ptr %17, align 8, !tbaa !14
  store ptr %36, ptr %19, align 8, !tbaa !14
  %37 = load i64, ptr %9, align 8, !tbaa !8
  %38 = icmp ult i64 %37, 17
  br i1 %38, label %39, label %40

39:                                               ; preds = %6
  store i64 0, ptr %7, align 8
  store i32 1, ptr %20, align 4
  br label %196

40:                                               ; preds = %6
  %41 = load i64, ptr %11, align 8, !tbaa !8
  %42 = icmp ult i64 %41, 12
  br i1 %42, label %43, label %44

43:                                               ; preds = %40
  store i64 0, ptr %7, align 8
  store i32 1, ptr %20, align 4
  br label %196

44:                                               ; preds = %40
  %45 = load ptr, ptr %19, align 8, !tbaa !14
  %46 = getelementptr inbounds i8, ptr %45, i64 6
  store ptr %46, ptr %19, align 8, !tbaa !14
  call void @llvm.lifetime.start.p0(i64 8, ptr %21) #8
  %47 = load ptr, ptr %19, align 8, !tbaa !14
  %48 = load ptr, ptr %18, align 8, !tbaa !14
  %49 = load ptr, ptr %19, align 8, !tbaa !14
  %50 = ptrtoint ptr %48 to i64
  %51 = ptrtoint ptr %49 to i64
  %52 = sub i64 %50, %51
  %53 = load ptr, ptr %15, align 8, !tbaa !14
  %54 = load i64, ptr %14, align 8, !tbaa !8
  %55 = load ptr, ptr %12, align 8, !tbaa !10
  %56 = load i32, ptr %13, align 4, !tbaa !12
  %57 = call i64 @HUF_compress1X_usingCTable_internal(ptr noundef %47, i64 noundef %52, ptr noundef %53, i64 noundef %54, ptr noundef %55, i32 noundef %56)
  store i64 %57, ptr %21, align 8, !tbaa !8
  %58 = load i64, ptr %21, align 8, !tbaa !8
  %59 = call i32 @ERR_isError(i64 noundef %58)
  %60 = icmp ne i32 %59, 0
  br i1 %60, label %61, label %63

61:                                               ; preds = %44
  %62 = load i64, ptr %21, align 8, !tbaa !8
  store i64 %62, ptr %7, align 8
  store i32 1, ptr %20, align 4
  br label %77

63:                                               ; preds = %44
  %64 = load i64, ptr %21, align 8, !tbaa !8
  %65 = icmp eq i64 %64, 0
  br i1 %65, label %69, label %66

66:                                               ; preds = %63
  %67 = load i64, ptr %21, align 8, !tbaa !8
  %68 = icmp ugt i64 %67, 65535
  br i1 %68, label %69, label %70

69:                                               ; preds = %66, %63
  store i64 0, ptr %7, align 8
  store i32 1, ptr %20, align 4
  br label %77

70:                                               ; preds = %66
  %71 = load ptr, ptr %17, align 8, !tbaa !14
  %72 = load i64, ptr %21, align 8, !tbaa !8
  %73 = trunc i64 %72 to i16
  call void @MEM_writeLE16(ptr noundef %71, i16 noundef zeroext %73)
  %74 = load i64, ptr %21, align 8, !tbaa !8
  %75 = load ptr, ptr %19, align 8, !tbaa !14
  %76 = getelementptr inbounds nuw i8, ptr %75, i64 %74
  store ptr %76, ptr %19, align 8, !tbaa !14
  store i32 0, ptr %20, align 4
  br label %77

77:                                               ; preds = %70, %69, %61
  call void @llvm.lifetime.end.p0(i64 8, ptr %21) #8
  %78 = load i32, ptr %20, align 4
  switch i32 %78, label %196 [
    i32 0, label %79
  ]

79:                                               ; preds = %77
  %80 = load i64, ptr %14, align 8, !tbaa !8
  %81 = load ptr, ptr %15, align 8, !tbaa !14
  %82 = getelementptr inbounds nuw i8, ptr %81, i64 %80
  store ptr %82, ptr %15, align 8, !tbaa !14
  call void @llvm.lifetime.start.p0(i64 8, ptr %22) #8
  %83 = load ptr, ptr %19, align 8, !tbaa !14
  %84 = load ptr, ptr %18, align 8, !tbaa !14
  %85 = load ptr, ptr %19, align 8, !tbaa !14
  %86 = ptrtoint ptr %84 to i64
  %87 = ptrtoint ptr %85 to i64
  %88 = sub i64 %86, %87
  %89 = load ptr, ptr %15, align 8, !tbaa !14
  %90 = load i64, ptr %14, align 8, !tbaa !8
  %91 = load ptr, ptr %12, align 8, !tbaa !10
  %92 = load i32, ptr %13, align 4, !tbaa !12
  %93 = call i64 @HUF_compress1X_usingCTable_internal(ptr noundef %83, i64 noundef %88, ptr noundef %89, i64 noundef %90, ptr noundef %91, i32 noundef %92)
  store i64 %93, ptr %22, align 8, !tbaa !8
  %94 = load i64, ptr %22, align 8, !tbaa !8
  %95 = call i32 @ERR_isError(i64 noundef %94)
  %96 = icmp ne i32 %95, 0
  br i1 %96, label %97, label %99

97:                                               ; preds = %79
  %98 = load i64, ptr %22, align 8, !tbaa !8
  store i64 %98, ptr %7, align 8
  store i32 1, ptr %20, align 4
  br label %114

99:                                               ; preds = %79
  %100 = load i64, ptr %22, align 8, !tbaa !8
  %101 = icmp eq i64 %100, 0
  br i1 %101, label %105, label %102

102:                                              ; preds = %99
  %103 = load i64, ptr %22, align 8, !tbaa !8
  %104 = icmp ugt i64 %103, 65535
  br i1 %104, label %105, label %106

105:                                              ; preds = %102, %99
  store i64 0, ptr %7, align 8
  store i32 1, ptr %20, align 4
  br label %114

106:                                              ; preds = %102
  %107 = load ptr, ptr %17, align 8, !tbaa !14
  %108 = getelementptr inbounds i8, ptr %107, i64 2
  %109 = load i64, ptr %22, align 8, !tbaa !8
  %110 = trunc i64 %109 to i16
  call void @MEM_writeLE16(ptr noundef %108, i16 noundef zeroext %110)
  %111 = load i64, ptr %22, align 8, !tbaa !8
  %112 = load ptr, ptr %19, align 8, !tbaa !14
  %113 = getelementptr inbounds nuw i8, ptr %112, i64 %111
  store ptr %113, ptr %19, align 8, !tbaa !14
  store i32 0, ptr %20, align 4
  br label %114

114:                                              ; preds = %106, %105, %97
  call void @llvm.lifetime.end.p0(i64 8, ptr %22) #8
  %115 = load i32, ptr %20, align 4
  switch i32 %115, label %196 [
    i32 0, label %116
  ]

116:                                              ; preds = %114
  %117 = load i64, ptr %14, align 8, !tbaa !8
  %118 = load ptr, ptr %15, align 8, !tbaa !14
  %119 = getelementptr inbounds nuw i8, ptr %118, i64 %117
  store ptr %119, ptr %15, align 8, !tbaa !14
  call void @llvm.lifetime.start.p0(i64 8, ptr %23) #8
  %120 = load ptr, ptr %19, align 8, !tbaa !14
  %121 = load ptr, ptr %18, align 8, !tbaa !14
  %122 = load ptr, ptr %19, align 8, !tbaa !14
  %123 = ptrtoint ptr %121 to i64
  %124 = ptrtoint ptr %122 to i64
  %125 = sub i64 %123, %124
  %126 = load ptr, ptr %15, align 8, !tbaa !14
  %127 = load i64, ptr %14, align 8, !tbaa !8
  %128 = load ptr, ptr %12, align 8, !tbaa !10
  %129 = load i32, ptr %13, align 4, !tbaa !12
  %130 = call i64 @HUF_compress1X_usingCTable_internal(ptr noundef %120, i64 noundef %125, ptr noundef %126, i64 noundef %127, ptr noundef %128, i32 noundef %129)
  store i64 %130, ptr %23, align 8, !tbaa !8
  %131 = load i64, ptr %23, align 8, !tbaa !8
  %132 = call i32 @ERR_isError(i64 noundef %131)
  %133 = icmp ne i32 %132, 0
  br i1 %133, label %134, label %136

134:                                              ; preds = %116
  %135 = load i64, ptr %23, align 8, !tbaa !8
  store i64 %135, ptr %7, align 8
  store i32 1, ptr %20, align 4
  br label %151

136:                                              ; preds = %116
  %137 = load i64, ptr %23, align 8, !tbaa !8
  %138 = icmp eq i64 %137, 0
  br i1 %138, label %142, label %139

139:                                              ; preds = %136
  %140 = load i64, ptr %23, align 8, !tbaa !8
  %141 = icmp ugt i64 %140, 65535
  br i1 %141, label %142, label %143

142:                                              ; preds = %139, %136
  store i64 0, ptr %7, align 8
  store i32 1, ptr %20, align 4
  br label %151

143:                                              ; preds = %139
  %144 = load ptr, ptr %17, align 8, !tbaa !14
  %145 = getelementptr inbounds i8, ptr %144, i64 4
  %146 = load i64, ptr %23, align 8, !tbaa !8
  %147 = trunc i64 %146 to i16
  call void @MEM_writeLE16(ptr noundef %145, i16 noundef zeroext %147)
  %148 = load i64, ptr %23, align 8, !tbaa !8
  %149 = load ptr, ptr %19, align 8, !tbaa !14
  %150 = getelementptr inbounds nuw i8, ptr %149, i64 %148
  store ptr %150, ptr %19, align 8, !tbaa !14
  store i32 0, ptr %20, align 4
  br label %151

151:                                              ; preds = %143, %142, %134
  call void @llvm.lifetime.end.p0(i64 8, ptr %23) #8
  %152 = load i32, ptr %20, align 4
  switch i32 %152, label %196 [
    i32 0, label %153
  ]

153:                                              ; preds = %151
  %154 = load i64, ptr %14, align 8, !tbaa !8
  %155 = load ptr, ptr %15, align 8, !tbaa !14
  %156 = getelementptr inbounds nuw i8, ptr %155, i64 %154
  store ptr %156, ptr %15, align 8, !tbaa !14
  call void @llvm.lifetime.start.p0(i64 8, ptr %24) #8
  %157 = load ptr, ptr %19, align 8, !tbaa !14
  %158 = load ptr, ptr %18, align 8, !tbaa !14
  %159 = load ptr, ptr %19, align 8, !tbaa !14
  %160 = ptrtoint ptr %158 to i64
  %161 = ptrtoint ptr %159 to i64
  %162 = sub i64 %160, %161
  %163 = load ptr, ptr %15, align 8, !tbaa !14
  %164 = load ptr, ptr %16, align 8, !tbaa !14
  %165 = load ptr, ptr %15, align 8, !tbaa !14
  %166 = ptrtoint ptr %164 to i64
  %167 = ptrtoint ptr %165 to i64
  %168 = sub i64 %166, %167
  %169 = load ptr, ptr %12, align 8, !tbaa !10
  %170 = load i32, ptr %13, align 4, !tbaa !12
  %171 = call i64 @HUF_compress1X_usingCTable_internal(ptr noundef %157, i64 noundef %162, ptr noundef %163, i64 noundef %168, ptr noundef %169, i32 noundef %170)
  store i64 %171, ptr %24, align 8, !tbaa !8
  %172 = load i64, ptr %24, align 8, !tbaa !8
  %173 = call i32 @ERR_isError(i64 noundef %172)
  %174 = icmp ne i32 %173, 0
  br i1 %174, label %175, label %177

175:                                              ; preds = %153
  %176 = load i64, ptr %24, align 8, !tbaa !8
  store i64 %176, ptr %7, align 8
  store i32 1, ptr %20, align 4
  br label %188

177:                                              ; preds = %153
  %178 = load i64, ptr %24, align 8, !tbaa !8
  %179 = icmp eq i64 %178, 0
  br i1 %179, label %183, label %180

180:                                              ; preds = %177
  %181 = load i64, ptr %24, align 8, !tbaa !8
  %182 = icmp ugt i64 %181, 65535
  br i1 %182, label %183, label %184

183:                                              ; preds = %180, %177
  store i64 0, ptr %7, align 8
  store i32 1, ptr %20, align 4
  br label %188

184:                                              ; preds = %180
  %185 = load i64, ptr %24, align 8, !tbaa !8
  %186 = load ptr, ptr %19, align 8, !tbaa !14
  %187 = getelementptr inbounds nuw i8, ptr %186, i64 %185
  store ptr %187, ptr %19, align 8, !tbaa !14
  store i32 0, ptr %20, align 4
  br label %188

188:                                              ; preds = %184, %183, %175
  call void @llvm.lifetime.end.p0(i64 8, ptr %24) #8
  %189 = load i32, ptr %20, align 4
  switch i32 %189, label %196 [
    i32 0, label %190
  ]

190:                                              ; preds = %188
  %191 = load ptr, ptr %19, align 8, !tbaa !14
  %192 = load ptr, ptr %17, align 8, !tbaa !14
  %193 = ptrtoint ptr %191 to i64
  %194 = ptrtoint ptr %192 to i64
  %195 = sub i64 %193, %194
  store i64 %195, ptr %7, align 8
  store i32 1, ptr %20, align 4
  br label %196

196:                                              ; preds = %190, %188, %151, %114, %77, %43, %39
  call void @llvm.lifetime.end.p0(i64 8, ptr %19) #8
  call void @llvm.lifetime.end.p0(i64 8, ptr %18) #8
  call void @llvm.lifetime.end.p0(i64 8, ptr %17) #8
  call void @llvm.lifetime.end.p0(i64 8, ptr %16) #8
  call void @llvm.lifetime.end.p0(i64 8, ptr %15) #8
  call void @llvm.lifetime.end.p0(i64 8, ptr %14) #8
  %197 = load i64, ptr %7, align 8
  ret i64 %197
}