; Function Attrs: nofree norecurse nosync nounwind memory(write, argmem: readwrite, inaccessiblemem: none) uwtable
define internal fastcc i64 @HUF_compress4X_usingCTable_internal(ptr noundef %0, i64 noundef %1, ptr noundef %2, i64 noundef %3, ptr noundef readonly captures(none) %4) unnamed_addr #8 {
  %6 = add i64 %3, 3
  %7 = lshr i64 %6, 2
  %8 = getelementptr inbounds nuw i8, ptr %2, i64 %3
  %9 = icmp ult i64 %1, 17
  %10 = icmp ult i64 %3, 12
  %or.cond107 = or i1 %9, %10
  br i1 %or.cond107, label %.thread, label %11

11:                                               ; preds = %5
  %12 = getelementptr inbounds nuw i8, ptr %0, i64 %1
  %13 = getelementptr inbounds nuw i8, ptr %0, i64 6
  %14 = ptrtoint ptr %12 to i64
  %gepdiff = add nsw i64 %1, -6
  %15 = tail call fastcc i64 @HUF_compress1X_usingCTable_internal(ptr noundef nonnull %13, i64 noundef %gepdiff, ptr noundef %2, i64 noundef %7, ptr noundef %4)
  %16 = icmp ult i64 %15, -119
  br i1 %16, label %17, label %.thread

17:                                               ; preds = %11
  %18 = add i64 %15, -65536
  %or.cond = icmp ult i64 %18, -65535
  br i1 %or.cond, label %.thread, label %19

19:                                               ; preds = %17
  %20 = trunc nuw i64 %15 to i16
  store i16 %20, ptr %0, align 1, !tbaa !17
  %21 = getelementptr inbounds nuw i8, ptr %13, i64 %15
  %22 = getelementptr inbounds nuw i8, ptr %2, i64 %7
  %23 = ptrtoint ptr %21 to i64
  %24 = sub i64 %14, %23
  %25 = tail call fastcc i64 @HUF_compress1X_usingCTable_internal(ptr noundef nonnull %21, i64 noundef %24, ptr noundef %22, i64 noundef %7, ptr noundef %4)
  %26 = icmp ult i64 %25, -119
  br i1 %26, label %27, label %.thread

27:                                               ; preds = %19
  %28 = add i64 %25, -65536
  %or.cond6 = icmp ult i64 %28, -65535
  br i1 %or.cond6, label %.thread, label %29

29:                                               ; preds = %27
  %30 = getelementptr inbounds nuw i8, ptr %0, i64 2
  %31 = trunc nuw i64 %25 to i16
  store i16 %31, ptr %30, align 1, !tbaa !17
  %32 = getelementptr inbounds nuw i8, ptr %21, i64 %25
  %33 = getelementptr inbounds nuw i8, ptr %22, i64 %7
  %34 = ptrtoint ptr %32 to i64
  %35 = sub i64 %14, %34
  %36 = tail call fastcc i64 @HUF_compress1X_usingCTable_internal(ptr noundef nonnull %32, i64 noundef %35, ptr noundef %33, i64 noundef %7, ptr noundef %4)
  %37 = icmp ult i64 %36, -119
  br i1 %37, label %38, label %.thread

38:                                               ; preds = %29
  %39 = add i64 %36, -65536
  %or.cond8 = icmp ult i64 %39, -65535
  br i1 %or.cond8, label %.thread, label %40

40:                                               ; preds = %38
  %41 = getelementptr inbounds nuw i8, ptr %0, i64 4
  %42 = trunc nuw i64 %36 to i16
  store i16 %42, ptr %41, align 1, !tbaa !17
  %43 = getelementptr inbounds nuw i8, ptr %32, i64 %36
  %44 = getelementptr inbounds nuw i8, ptr %33, i64 %7
  %45 = ptrtoint ptr %43 to i64
  %46 = sub i64 %14, %45
  %47 = ptrtoint ptr %8 to i64
  %48 = ptrtoint ptr %44 to i64
  %49 = sub i64 %47, %48
  %50 = tail call fastcc i64 @HUF_compress1X_usingCTable_internal(ptr noundef nonnull %43, i64 noundef %46, ptr noundef %44, i64 noundef %49, ptr noundef %4)
  %51 = icmp ult i64 %50, -119
  br i1 %51, label %52, label %.thread

52:                                               ; preds = %40
  %53 = add i64 %50, -65536
  %or.cond10 = icmp ult i64 %53, -65535
  br i1 %or.cond10, label %.thread, label %54

54:                                               ; preds = %52
  %55 = getelementptr inbounds nuw i8, ptr %43, i64 %50
  %56 = ptrtoint ptr %55 to i64
  %57 = ptrtoint ptr %0 to i64
  %58 = sub i64 %56, %57
  br label %.thread

.thread:                                          ; preds = %52, %40, %38, %29, %27, %19, %17, %11, %5, %54
  %.0 = phi i64 [ %58, %54 ], [ 0, %5 ], [ 0, %17 ], [ %15, %11 ], [ 0, %27 ], [ %25, %19 ], [ 0, %38 ], [ %36, %29 ], [ 0, %52 ], [ %50, %40 ]
  ret i64 %.0
}